target datalayout = "e-m:e-p270:32:32-p271:32:32-p272:64:64-i64:64-i128:128-f80:128-n8:16:32:64-S128"
target triple = "x86_64-pc-linux-gnu"

%class.FindLineEdit = type <{ %class.QLineEdit, i8, [7 x i8] }>
%class.QLineEdit = type { %class.QWidget }
%class.QWidget = type { %class.QObject, %class.QPaintDevice.base, ptr }
%class.QObject = type { ptr, %class.QScopedPointer }
%class.QScopedPointer = type { ptr }
%class.QPaintDevice.base = type <{ ptr, i16 }>

; Function Attrs: mustprogress null_pointer_is_valid sspstrong uwtable
define void @_ZN12FindLineEdit13keyPressEventEP9QKeyEvent(ptr noundef align 8 dereferenceable_or_null(41) %0, ptr noundef %1) unnamed_addr #0 align 2 {
  %3 = alloca ptr, align 8
  %4 = alloca ptr, align 8
  store ptr %0, ptr %3, align 8
  store ptr %1, ptr %4, align 8
  %5 = load ptr, ptr %3, align 8
  %6 = load ptr, ptr %4, align 8
  call void @_ZN9QLineEdit13keyPressEventEP9QKeyEvent(ptr noundef align 8 dereferenceable_or_null(40) %5, ptr noundef %6)
  %7 = getelementptr inbounds nuw %class.FindLineEdit, ptr %5, i32 0, i32 1
  %8 = load i8, ptr %7, align 8, !range !6, !noundef !7
  %9 = trunc i8 %8 to i1
  br i1 %9, label %10, label %11

10:                                               ; preds = %2
  call void @_ZN12FindLineEdit12validateTextEv(ptr noundef align 8 dereferenceable_or_null(41) %5)
  br label %11

11:                                               ; preds = %10, %2
  ret void
}