; Function Attrs: mustprogress null_pointer_is_valid sspstrong uwtable
define void @_ZN12FindLineEdit13keyPressEventEP9QKeyEvent(ptr noundef align 8 dereferenceable_or_null(41) %0, ptr noundef %1) unnamed_addr #0 align 2 {
  tail call void @_ZN9QLineEdit13keyPressEventEP9QKeyEvent(ptr noundef align 8 dereferenceable_or_null(40) %0, ptr noundef %1)
  %3 = getelementptr inbounds nuw i8, ptr %0, i64 40
  %4 = load i8, ptr %3, align 8, !range !6, !noundef !7
  %5 = trunc nuw i8 %4 to i1
  br i1 %5, label %6, label %7

6:                                                ; preds = %2
  tail call void @_ZN12FindLineEdit12validateTextEv(ptr noundef align 8 dereferenceable_or_null(41) %0)
  br label %7

7:                                                ; preds = %6, %2
  ret void
}